; Function Attrs: nounwind uwtable
define hidden noalias noundef ptr @MIDI_IN_GetMessage(ptr noundef %0) local_unnamed_addr #0 {
  %2 = alloca %struct.snd_seq_event, align 4
  %3 = alloca [1 x i8], align 1
  %.not = icmp eq ptr %0, null
  br i1 %.not, label %.loopexit, label %4

4:                                                ; preds = %1
  %5 = load ptr, ptr %0, align 8
  %.not45 = icmp eq ptr %5, null
  br i1 %.not45, label %.loopexit, label %6

6:                                                ; preds = %4
  %7 = getelementptr inbounds i8, ptr %0, i64 16
  %8 = load ptr, ptr %7, align 8
  %.not46 = icmp eq ptr %8, null
  br i1 %.not46, label %.loopexit, label %.preheader

.preheader:                                       ; preds = %6, %18
  %9 = load ptr, ptr %0, align 8
  %10 = call i64 @snd_rawmidi_read(ptr noundef %9, ptr noundef nonnull %3, i64 noundef 1) #8
  %11 = and i64 %10, 4294967295
  %.not47 = icmp eq i64 %11, 1
  br i1 %.not47, label %12, label %.loopexit

12:                                               ; preds = %.preheader
  %13 = load ptr, ptr %7, align 8
  %14 = load i8, ptr %3, align 1
  %15 = sext i8 %14 to i32
  %16 = call i32 @snd_midi_event_encode_byte(ptr noundef %13, i32 noundef %15, ptr noundef nonnull %2) #8
  %17 = icmp eq i32 %16, 1
  br i1 %17, label %20, label %18

18:                                               ; preds = %12
  %19 = icmp slt i32 %16, 0
  br i1 %19, label %.loopexit, label %.preheader

20:                                               ; preds = %12
  %21 = call noalias dereferenceable_or_null(40) ptr @calloc(i64 noundef 1, i64 noundef 40) #9
  %.not48 = icmp eq ptr %21, null
  br i1 %.not48, label %.loopexit, label %22

22:                                               ; preds = %20
  %23 = load i8, ptr %2, align 4
  switch i8 %23, label %138 [
    i8 6, label %24
    i8 7, label %24
    i8 8, label %24
    i8 10, label %44
    i8 11, label %60
    i8 12, label %60
    i8 13, label %73
    i8 -126, label %87
    i8 22, label %100
    i8 20, label %107
    i8 21, label %117
    i8 40, label %124
    i8 36, label %126
    i8 30, label %128
    i8 31, label %130
    i8 32, label %132
    i8 42, label %134
    i8 41, label %136
  ]

24:                                               ; preds = %22, %22, %22
  %25 = icmp eq i8 %23, 8
  %26 = icmp eq i8 %23, 6
  %27 = select i1 %26, i32 144, i32 128
  %28 = select i1 %25, i32 160, i32 %27
  %29 = getelementptr inbounds i8, ptr %2, i64 16
  %30 = load i8, ptr %29, align 4
  %31 = zext i8 %30 to i32
  %32 = or i32 %28, %31
  %33 = getelementptr inbounds i8, ptr %2, i64 17
  %34 = load i8, ptr %33, align 1
  %35 = zext i8 %34 to i32
  %36 = getelementptr inbounds i8, ptr %2, i64 18
  %37 = load i8, ptr %36, align 2
  %38 = zext i8 %37 to i32
  %39 = shl nuw nsw i32 %35, 8
  %40 = or disjoint i32 %39, %32
  %41 = shl nuw nsw i32 %38, 16
  %42 = or disjoint i32 %40, %41
  %43 = getelementptr inbounds i8, ptr %21, i64 16
  store i32 %42, ptr %43, align 8
  br label %139

44:                                               ; preds = %22
  %45 = getelementptr inbounds i8, ptr %2, i64 16
  %46 = load i8, ptr %45, align 4
  %47 = or i8 %46, -80
  %48 = zext i8 %47 to i32
  %49 = getelementptr inbounds i8, ptr %2, i64 20
  %50 = load i32, ptr %49, align 4
  %51 = getelementptr inbounds i8, ptr %2, i64 24
  %52 = load i32, ptr %51, align 4
  %53 = shl i32 %50, 8
  %54 = and i32 %53, 65280
  %55 = or disjoint i32 %54, %48
  %56 = shl i32 %52, 16
  %57 = and i32 %56, 16711680
  %58 = or disjoint i32 %55, %57
  %59 = getelementptr inbounds i8, ptr %21, i64 16
  store i32 %58, ptr %59, align 8
  br label %139

60:                                               ; preds = %22, %22
  %61 = icmp eq i8 %23, 11
  %62 = select i1 %61, i32 192, i32 208
  %63 = getelementptr inbounds i8, ptr %2, i64 16
  %64 = load i8, ptr %63, align 4
  %65 = zext i8 %64 to i32
  %66 = or i32 %62, %65
  %67 = getelementptr inbounds i8, ptr %2, i64 24
  %68 = load i32, ptr %67, align 4
  %69 = shl i32 %68, 8
  %70 = and i32 %69, 65280
  %71 = or disjoint i32 %66, %70
  %72 = getelementptr inbounds i8, ptr %21, i64 16
  store i32 %71, ptr %72, align 8
  br label %139

73:                                               ; preds = %22
  %74 = getelementptr inbounds i8, ptr %2, i64 16
  %75 = load i8, ptr %74, align 4
  %76 = or i8 %75, -32
  %77 = zext i8 %76 to i32
  %78 = getelementptr inbounds i8, ptr %2, i64 24
  %79 = load i32, ptr %78, align 4
  %80 = shl i32 %79, 8
  %81 = and i32 %80, 32512
  %82 = or disjoint i32 %81, %77
  %83 = shl i32 %79, 9
  %84 = and i32 %83, 8323072
  %85 = or disjoint i32 %82, %84
  %86 = getelementptr inbounds i8, ptr %21, i64 16
  store i32 %85, ptr %86, align 8
  br label %139

87:                                               ; preds = %22
  %88 = getelementptr inbounds i8, ptr %21, i64 12
  store i32 1, ptr %88, align 4
  %89 = getelementptr inbounds i8, ptr %2, i64 16
  %90 = load i32, ptr %89, align 4
  %91 = getelementptr inbounds i8, ptr %21, i64 16
  store i32 %90, ptr %91, align 8
  %92 = zext i32 %90 to i64
  %93 = call noalias ptr @malloc(i64 noundef %92) #10
  %94 = getelementptr inbounds i8, ptr %21, i64 24
  store ptr %93, ptr %94, align 8
  %95 = icmp eq ptr %93, null
  br i1 %95, label %96, label %97

96:                                               ; preds = %87
  call void @free(ptr noundef nonnull %21) #8
  br label %.loopexit

97:                                               ; preds = %87
  %98 = getelementptr inbounds i8, ptr %2, i64 20
  %99 = load ptr, ptr %98, align 4
  call void @llvm.memcpy.p0.p0.i64(ptr nonnull align 1 %93, ptr align 1 %99, i64 %92, i1 false)
  br label %139

100:                                              ; preds = %22
  %101 = getelementptr inbounds i8, ptr %2, i64 24
  %102 = load i32, ptr %101, align 4
  %103 = shl i32 %102, 8
  %104 = and i32 %103, 32512
  %105 = or disjoint i32 %104, 241
  %106 = getelementptr inbounds i8, ptr %21, i64 16
  store i32 %105, ptr %106, align 8
  br label %139

107:                                              ; preds = %22
  %108 = getelementptr inbounds i8, ptr %2, i64 24
  %109 = load i32, ptr %108, align 4
  %110 = shl i32 %109, 8
  %111 = and i32 %110, 32512
  %112 = shl i32 %109, 9
  %113 = and i32 %112, 8323072
  %114 = or disjoint i32 %113, %111
  %115 = or disjoint i32 %114, 242
  %116 = getelementptr inbounds i8, ptr %21, i64 16
  store i32 %115, ptr %116, align 8
  br label %139

117:                                              ; preds = %22
  %118 = getelementptr inbounds i8, ptr %2, i64 24
  %119 = load i32, ptr %118, align 4
  %120 = shl i32 %119, 8
  %121 = and i32 %120, 32512
  %122 = or disjoint i32 %121, 243
  %123 = getelementptr inbounds i8, ptr %21, i64 16
  store i32 %122, ptr %123, align 8
  br label %139

124:                                              ; preds = %22
  %125 = getelementptr inbounds i8, ptr %21, i64 16
  store i32 246, ptr %125, align 8
  br label %139

126:                                              ; preds = %22
  %127 = getelementptr inbounds i8, ptr %21, i64 16
  store i32 248, ptr %127, align 8
  br label %139

128:                                              ; preds = %22
  %129 = getelementptr inbounds i8, ptr %21, i64 16
  store i32 250, ptr %129, align 8
  br label %139

130:                                              ; preds = %22
  %131 = getelementptr inbounds i8, ptr %21, i64 16
  store i32 251, ptr %131, align 8
  br label %139

132:                                              ; preds = %22
  %133 = getelementptr inbounds i8, ptr %21, i64 16
  store i32 252, ptr %133, align 8
  br label %139

134:                                              ; preds = %22
  %135 = getelementptr inbounds i8, ptr %21, i64 16
  store i32 254, ptr %135, align 8
  br label %139

136:                                              ; preds = %22
  %137 = getelementptr inbounds i8, ptr %21, i64 16
  store i32 255, ptr %137, align 8
  br label %139

138:                                              ; preds = %22
  call void @free(ptr noundef nonnull %21) #8
  br label %.loopexit

139:                                              ; preds = %136, %134, %132, %130, %128, %126, %124, %117, %107, %100, %97, %73, %60, %44, %24
  %140 = call i64 @getMidiTimestamp(ptr noundef nonnull %0) #8
  store i64 %140, ptr %21, align 8
  br label %.loopexit

.loopexit:                                        ; preds = %18, %.preheader, %138, %96, %139, %20, %6, %4, %1
  %.040 = phi ptr [ null, %1 ], [ null, %4 ], [ null, %6 ], [ null, %20 ], [ %21, %139 ], [ null, %138 ], [ null, %96 ], [ null, %.preheader ], [ null, %18 ]
  ret ptr %.040
}